; Function Attrs: nofree norecurse nosync nounwind memory(read, inaccessiblemem: none) uwtable
define hidden signext range(i8 0, 2) i8 @nfaExecSheng_inAccept(ptr noundef readonly captures(none) %0, i32 noundef %1, ptr noundef readonly captures(none) %2) local_unnamed_addr #3 {
  %4 = getelementptr inbounds nuw i8, ptr %0, i64 64
  %5 = getelementptr inbounds nuw i8, ptr %2, i64 16
  %6 = load ptr, ptr %5, align 8
  %7 = load i8, ptr %6, align 1
  %8 = getelementptr inbounds nuw i8, ptr %0, i64 4164
  %9 = load i32, ptr %8, align 4
  %10 = add i32 %9, -64
  %11 = shl i8 %7, 4
  %12 = zext i8 %11 to i32
  %13 = add i32 %10, %12
  %14 = zext i32 %13 to i64
  %15 = getelementptr inbounds nuw i8, ptr %4, i64 %14
  %16 = load i32, ptr %15, align 4
  %.not = icmp eq i32 %16, 0
  br i1 %.not, label %shengHasAccept.exit, label %17

17:                                               ; preds = %3
  %18 = zext i32 %16 to i64
  %19 = getelementptr inbounds nuw i8, ptr %4, i64 %18
  %20 = getelementptr inbounds i8, ptr %19, i64 -64
  %21 = getelementptr inbounds i8, ptr %19, i64 -60
  %22 = load i32, ptr %20, align 4
  %.not.i8.not = icmp eq i32 %22, 0
  br i1 %.not.i8.not, label %shengHasAccept.exit, label %.lr.ph.preheader

.lr.ph.preheader:                                 ; preds = %17
  %wide.trip.count = zext i32 %22 to i64
  br label %.lr.ph

23:                                               ; preds = %.lr.ph
  %indvars.iv.next = add nuw nsw i64 %indvars.iv, 1
  %exitcond.not = icmp eq i64 %indvars.iv.next, %wide.trip.count
  br i1 %exitcond.not, label %shengHasAccept.exit, label %.lr.ph

.lr.ph:                                           ; preds = %.lr.ph.preheader, %23
  %indvars.iv = phi i64 [ 0, %.lr.ph.preheader ], [ %indvars.iv.next, %23 ]
  %24 = getelementptr inbounds nuw [0 x i32], ptr %21, i64 0, i64 %indvars.iv
  %25 = load i32, ptr %24, align 4
  %26 = icmp eq i32 %25, %1
  br i1 %26, label %shengHasAccept.exit, label %23

shengHasAccept.exit:                              ; preds = %23, %.lr.ph, %17, %3
  %.0 = phi i8 [ 0, %3 ], [ 0, %17 ], [ 0, %23 ], [ 1, %.lr.ph ]
  ret i8 %.0
}